target datalayout = "e-m:e-p270:32:32-p271:32:32-p272:64:64-i64:64-i128:128-f80:128-n8:16:32:64-S128"
target triple = "x86_64-pc-linux-gnu"

%struct.ident_t = type { i32, i32, i32, i32, ptr }
%"class.open3d::t::geometry::kernel::TArrayIndexer" = type { ptr, i32, i32, [4 x i32] }
%class.anon = type { ptr, i32, ptr, %"class.open3d::t::geometry::kernel::TArrayIndexer", i32, float, ptr, ptr }

@1 = private unnamed_addr constant %struct.ident_t { i32 0, i32 514, i32 0, i32 22, ptr @0 }, align 8

; Function Attrs: inlinehint mustprogress nounwind ssp uwtable
define linkonce_odr hidden void @_ZNK6open3d1t8geometry6kernel13TArrayIndexerIiE15WorkloadToCoordEiPiS5_S5_(ptr noundef nonnull align 8 dereferenceable(32) %0, i32 noundef %1, ptr noundef %2, ptr noundef %3, ptr noundef %4) #6 comdat align 2 {
  %6 = alloca ptr, align 8
  %7 = alloca i32, align 4
  %8 = alloca ptr, align 8
  %9 = alloca ptr, align 8
  %10 = alloca ptr, align 8
  store ptr %0, ptr %6, align 8, !tbaa !55
  store i32 %1, ptr %7, align 4, !tbaa !9
  store ptr %2, ptr %8, align 8, !tbaa !15
  store ptr %3, ptr %9, align 8, !tbaa !15
  store ptr %4, ptr %10, align 8, !tbaa !15
  %11 = load ptr, ptr %6, align 8
  %12 = load i32, ptr %7, align 4, !tbaa !9
  %13 = getelementptr inbounds nuw %"class.open3d::t::geometry::kernel::TArrayIndexer", ptr %11, i32 0, i32 3
  %14 = getelementptr inbounds [4 x i32], ptr %13, i64 0, i64 2
  %15 = load i32, ptr %14, align 8, !tbaa !9
  %16 = srem i32 %12, %15
  %17 = load ptr, ptr %8, align 8, !tbaa !15
  store i32 %16, ptr %17, align 4, !tbaa !9
  %18 = load i32, ptr %7, align 4, !tbaa !9
  %19 = load ptr, ptr %8, align 8, !tbaa !15
  %20 = load i32, ptr %19, align 4, !tbaa !9
  %21 = sub nsw i32 %18, %20
  %22 = getelementptr inbounds nuw %"class.open3d::t::geometry::kernel::TArrayIndexer", ptr %11, i32 0, i32 3
  %23 = getelementptr inbounds [4 x i32], ptr %22, i64 0, i64 2
  %24 = load i32, ptr %23, align 8, !tbaa !9
  %25 = sdiv i32 %21, %24
  store i32 %25, ptr %7, align 4, !tbaa !9
  %26 = load i32, ptr %7, align 4, !tbaa !9
  %27 = getelementptr inbounds nuw %"class.open3d::t::geometry::kernel::TArrayIndexer", ptr %11, i32 0, i32 3
  %28 = getelementptr inbounds [4 x i32], ptr %27, i64 0, i64 1
  %29 = load i32, ptr %28, align 4, !tbaa !9
  %30 = srem i32 %26, %29
  %31 = load ptr, ptr %9, align 8, !tbaa !15
  store i32 %30, ptr %31, align 4, !tbaa !9
  %32 = load i32, ptr %7, align 4, !tbaa !9
  %33 = getelementptr inbounds nuw %"class.open3d::t::geometry::kernel::TArrayIndexer", ptr %11, i32 0, i32 3
  %34 = getelementptr inbounds [4 x i32], ptr %33, i64 0, i64 1
  %35 = load i32, ptr %34, align 4, !tbaa !9
  %36 = sdiv i32 %32, %35
  %37 = load ptr, ptr %10, align 8, !tbaa !15
  store i32 %36, ptr %37, align 4, !tbaa !9
  ret void
}

; Function Attrs: noinline noreturn nounwind ssp uwtable
define linkonce_odr hidden void @__clang_call_terminate(ptr noundef %0) #23 comdat {
  %2 = call ptr @__cxa_begin_catch(ptr %0) #25
  call void @_ZSt9terminatev() #32
  unreachable
}

; Function Attrs: inlinehint mustprogress ssp uwtable
define internal void @"_ZZN6open3d1t8geometry6kernel10voxel_grid41GetVoxelCoordinatesAndFlattenedIndicesCPUERKNS_4core6TensorES7_RS5_S8_ifENK3$_0clEi"(ptr noundef nonnull align 8 dereferenceable(80) %0, i32 noundef %1) #2 align 2 {
  %3 = alloca ptr, align 8
  %4 = alloca i32, align 4
  %5 = alloca i32, align 4
  %6 = alloca i32, align 4
  %7 = alloca i32, align 4
  %8 = alloca i32, align 4
  %9 = alloca i32, align 4
  %10 = alloca i32, align 4
  %11 = alloca i32, align 4
  %12 = alloca i32, align 4
  %13 = alloca i32, align 4
  %14 = alloca float, align 4
  %15 = alloca float, align 4
  %16 = alloca float, align 4
  %17 = alloca i32, align 4
  store ptr %0, ptr %3, align 8, !tbaa !32
  store i32 %1, ptr %4, align 4, !tbaa !9
  %18 = load ptr, ptr %3, align 8
  call void @llvm.lifetime.start.p0(i64 4, ptr %5) #25
  %19 = getelementptr inbounds nuw %class.anon, ptr %18, i32 0, i32 0
  %20 = load ptr, ptr %19, align 8, !tbaa !26
  %21 = load i32, ptr %4, align 4, !tbaa !9
  %22 = getelementptr inbounds nuw %class.anon, ptr %18, i32 0, i32 1
  %23 = load i32, ptr %22, align 8, !tbaa !29
  %24 = sdiv i32 %21, %23
  %25 = sext i32 %24 to i64
  %26 = getelementptr inbounds i32, ptr %20, i64 %25
  %27 = load i32, ptr %26, align 4, !tbaa !9
  store i32 %27, ptr %5, align 4, !tbaa !9
  call void @llvm.lifetime.start.p0(i64 4, ptr %6) #25
  %28 = load i32, ptr %4, align 4, !tbaa !9
  %29 = getelementptr inbounds nuw %class.anon, ptr %18, i32 0, i32 1
  %30 = load i32, ptr %29, align 8, !tbaa !29
  %31 = srem i32 %28, %30
  store i32 %31, ptr %6, align 4, !tbaa !9
  call void @llvm.lifetime.start.p0(i64 4, ptr %7) #25
  %32 = load i32, ptr %5, align 4, !tbaa !9
  %33 = mul nsw i32 %32, 3
  store i32 %33, ptr %7, align 4, !tbaa !9
  call void @llvm.lifetime.start.p0(i64 4, ptr %8) #25
  %34 = getelementptr inbounds nuw %class.anon, ptr %18, i32 0, i32 2
  %35 = load ptr, ptr %34, align 8, !tbaa !30
  %36 = load i32, ptr %7, align 4, !tbaa !9
  %37 = add nsw i32 %36, 0
  %38 = sext i32 %37 to i64
  %39 = getelementptr inbounds i32, ptr %35, i64 %38
  %40 = load i32, ptr %39, align 4, !tbaa !9
  store i32 %40, ptr %8, align 4, !tbaa !9
  call void @llvm.lifetime.start.p0(i64 4, ptr %9) #25
  %41 = getelementptr inbounds nuw %class.anon, ptr %18, i32 0, i32 2
  %42 = load ptr, ptr %41, align 8, !tbaa !30
  %43 = load i32, ptr %7, align 4, !tbaa !9
  %44 = add nsw i32 %43, 1
  %45 = sext i32 %44 to i64
  %46 = getelementptr inbounds i32, ptr %42, i64 %45
  %47 = load i32, ptr %46, align 4, !tbaa !9
  store i32 %47, ptr %9, align 4, !tbaa !9
  call void @llvm.lifetime.start.p0(i64 4, ptr %10) #25
  %48 = getelementptr inbounds nuw %class.anon, ptr %18, i32 0, i32 2
  %49 = load ptr, ptr %48, align 8, !tbaa !30
  %50 = load i32, ptr %7, align 4, !tbaa !9
  %51 = add nsw i32 %50, 2
  %52 = sext i32 %51 to i64
  %53 = getelementptr inbounds i32, ptr %49, i64 %52
  %54 = load i32, ptr %53, align 4, !tbaa !9
  store i32 %54, ptr %10, align 4, !tbaa !9
  call void @llvm.lifetime.start.p0(i64 4, ptr %11) #25
  call void @llvm.lifetime.start.p0(i64 4, ptr %12) #25
  call void @llvm.lifetime.start.p0(i64 4, ptr %13) #25
  %55 = getelementptr inbounds nuw %class.anon, ptr %18, i32 0, i32 3
  %56 = load i32, ptr %6, align 4, !tbaa !9
  call void @_ZNK6open3d1t8geometry6kernel13TArrayIndexerIiE15WorkloadToCoordEiPiS5_S5_(ptr noundef nonnull align 8 dereferenceable(32) %55, i32 noundef %56, ptr noundef %11, ptr noundef %12, ptr noundef %13)
  call void @llvm.lifetime.start.p0(i64 4, ptr %14) #25
  %57 = load i32, ptr %8, align 4, !tbaa !9
  %58 = getelementptr inbounds nuw %class.anon, ptr %18, i32 0, i32 4
  %59 = load i32, ptr %58, align 8, !tbaa !34
  %60 = mul nsw i32 %57, %59
  %61 = load i32, ptr %11, align 4, !tbaa !9
  %62 = add nsw i32 %60, %61
  %63 = sitofp i32 %62 to float
  %64 = getelementptr inbounds nuw %class.anon, ptr %18, i32 0, i32 5
  %65 = load float, ptr %64, align 4, !tbaa !35
  %66 = fmul float %63, %65
  store float %66, ptr %14, align 4, !tbaa !11
  call void @llvm.lifetime.start.p0(i64 4, ptr %15) #25
  %67 = load i32, ptr %9, align 4, !tbaa !9
  %68 = getelementptr inbounds nuw %class.anon, ptr %18, i32 0, i32 4
  %69 = load i32, ptr %68, align 8, !tbaa !34
  %70 = mul nsw i32 %67, %69
  %71 = load i32, ptr %12, align 4, !tbaa !9
  %72 = add nsw i32 %70, %71
  %73 = sitofp i32 %72 to float
  %74 = getelementptr inbounds nuw %class.anon, ptr %18, i32 0, i32 5
  %75 = load float, ptr %74, align 4, !tbaa !35
  %76 = fmul float %73, %75
  store float %76, ptr %15, align 4, !tbaa !11
  call void @llvm.lifetime.start.p0(i64 4, ptr %16) #25
  %77 = load i32, ptr %10, align 4, !tbaa !9
  %78 = getelementptr inbounds nuw %class.anon, ptr %18, i32 0, i32 4
  %79 = load i32, ptr %78, align 8, !tbaa !34
  %80 = mul nsw i32 %77, %79
  %81 = load i32, ptr %13, align 4, !tbaa !9
  %82 = add nsw i32 %80, %81
  %83 = sitofp i32 %82 to float
  %84 = getelementptr inbounds nuw %class.anon, ptr %18, i32 0, i32 5
  %85 = load float, ptr %84, align 4, !tbaa !35
  %86 = fmul float %83, %85
  store float %86, ptr %16, align 4, !tbaa !11
  %87 = load i32, ptr %5, align 4, !tbaa !9
  %88 = getelementptr inbounds nuw %class.anon, ptr %18, i32 0, i32 1
  %89 = load i32, ptr %88, align 8, !tbaa !29
  %90 = mul nsw i32 %87, %89
  %91 = load i32, ptr %6, align 4, !tbaa !9
  %92 = add nsw i32 %90, %91
  %93 = sext i32 %92 to i64
  %94 = getelementptr inbounds nuw %class.anon, ptr %18, i32 0, i32 6
  %95 = load ptr, ptr %94, align 8, !tbaa !36
  %96 = load i32, ptr %4, align 4, !tbaa !9
  %97 = sext i32 %96 to i64
  %98 = getelementptr inbounds i64, ptr %95, i64 %97
  store i64 %93, ptr %98, align 8, !tbaa !21
  call void @llvm.lifetime.start.p0(i64 4, ptr %17) #25
  %99 = load i32, ptr %4, align 4, !tbaa !9
  %100 = mul nsw i32 %99, 3
  store i32 %100, ptr %17, align 4, !tbaa !9
  %101 = load float, ptr %14, align 4, !tbaa !11
  %102 = getelementptr inbounds nuw %class.anon, ptr %18, i32 0, i32 7
  %103 = load ptr, ptr %102, align 8, !tbaa !37
  %104 = load i32, ptr %17, align 4, !tbaa !9
  %105 = add nsw i32 %104, 0
  %106 = sext i32 %105 to i64
  %107 = getelementptr inbounds float, ptr %103, i64 %106
  store float %101, ptr %107, align 4, !tbaa !11
  %108 = load float, ptr %15, align 4, !tbaa !11
  %109 = getelementptr inbounds nuw %class.anon, ptr %18, i32 0, i32 7
  %110 = load ptr, ptr %109, align 8, !tbaa !37
  %111 = load i32, ptr %17, align 4, !tbaa !9
  %112 = add nsw i32 %111, 1
  %113 = sext i32 %112 to i64
  %114 = getelementptr inbounds float, ptr %110, i64 %113
  store float %108, ptr %114, align 4, !tbaa !11
  %115 = load float, ptr %16, align 4, !tbaa !11
  %116 = getelementptr inbounds nuw %class.anon, ptr %18, i32 0, i32 7
  %117 = load ptr, ptr %116, align 8, !tbaa !37
  %118 = load i32, ptr %17, align 4, !tbaa !9
  %119 = add nsw i32 %118, 2
  %120 = sext i32 %119 to i64
  %121 = getelementptr inbounds float, ptr %117, i64 %120
  store float %115, ptr %121, align 4, !tbaa !11
  call void @llvm.lifetime.end.p0(i64 4, ptr %17) #25
  call void @llvm.lifetime.end.p0(i64 4, ptr %16) #25
  call void @llvm.lifetime.end.p0(i64 4, ptr %15) #25
  call void @llvm.lifetime.end.p0(i64 4, ptr %14) #25
  call void @llvm.lifetime.end.p0(i64 4, ptr %13) #25
  call void @llvm.lifetime.end.p0(i64 4, ptr %12) #25
  call void @llvm.lifetime.end.p0(i64 4, ptr %11) #25
  call void @llvm.lifetime.end.p0(i64 4, ptr %10) #25
  call void @llvm.lifetime.end.p0(i64 4, ptr %9) #25
  call void @llvm.lifetime.end.p0(i64 4, ptr %8) #25
  call void @llvm.lifetime.end.p0(i64 4, ptr %7) #25
  call void @llvm.lifetime.end.p0(i64 4, ptr %6) #25
  call void @llvm.lifetime.end.p0(i64 4, ptr %5) #25
  ret void
}

; Function Attrs: alwaysinline norecurse nounwind ssp uwtable
define internal void @"_ZN6open3d4core15ParallelForCPU_IZNS_1t8geometry6kernel10voxel_grid41GetVoxelCoordinatesAndFlattenedIndicesCPUERKNS0_6TensorES8_RS6_S9_ifE3$_0EEvRKNS0_6DeviceElRKT_.omp_outlined"(ptr noalias noundef %0, ptr noalias noundef %1, ptr noundef nonnull align 8 dereferenceable(8) %2, ptr noundef nonnull align 8 dereferenceable(80) %3) #24 personality ptr @__gxx_personality_v0 {
  %5 = alloca ptr, align 8
  %6 = alloca ptr, align 8
  %7 = alloca ptr, align 8
  %8 = alloca ptr, align 8
  %9 = alloca ptr, align 8
  %10 = alloca i64, align 8
  %11 = alloca i64, align 8
  %12 = alloca i64, align 8
  %13 = alloca i64, align 8
  %14 = alloca i64, align 8
  %15 = alloca i64, align 8
  %16 = alloca i64, align 8
  %17 = alloca i32, align 4
  %18 = alloca i64, align 8
  store ptr %0, ptr %5, align 8, !tbaa !15
  store ptr %1, ptr %6, align 8, !tbaa !15
  store ptr %2, ptr %7, align 8, !tbaa !19
  store ptr %3, ptr %8, align 8, !tbaa !32
  %19 = load ptr, ptr %7, align 8, !tbaa !19
  %20 = load ptr, ptr %8, align 8, !tbaa !32
  store ptr %20, ptr %9, align 8
  call void @llvm.lifetime.start.p0(i64 8, ptr %10) #25
  call void @llvm.lifetime.start.p0(i64 8, ptr %11) #25
  %21 = load i64, ptr %19, align 8, !tbaa !21
  store i64 %21, ptr %11, align 8, !tbaa !21
  call void @llvm.lifetime.start.p0(i64 8, ptr %12) #25
  %22 = load i64, ptr %11, align 8, !tbaa !21
  %23 = sub nsw i64 %22, 0
  %24 = sdiv i64 %23, 1
  %25 = sub nsw i64 %24, 1
  store i64 %25, ptr %12, align 8, !tbaa !21
  call void @llvm.lifetime.start.p0(i64 8, ptr %13) #25
  store i64 0, ptr %13, align 8, !tbaa !21
  call void @llvm.lifetime.end.p0(i64 8, ptr %13) #25
  %26 = load i64, ptr %11, align 8, !tbaa !21
  %27 = icmp slt i64 0, %26
  br i1 %27, label %28, label %63

28:                                               ; preds = %4
  call void @llvm.lifetime.start.p0(i64 8, ptr %14) #25
  store i64 0, ptr %14, align 8, !tbaa !21
  call void @llvm.lifetime.start.p0(i64 8, ptr %15) #25
  %29 = load i64, ptr %12, align 8, !tbaa !21
  store i64 %29, ptr %15, align 8, !tbaa !21
  call void @llvm.lifetime.start.p0(i64 8, ptr %16) #25
  store i64 1, ptr %16, align 8, !tbaa !21
  call void @llvm.lifetime.start.p0(i64 4, ptr %17) #25
  store i32 0, ptr %17, align 4, !tbaa !9
  call void @llvm.lifetime.start.p0(i64 8, ptr %18) #25
  %30 = load ptr, ptr %5, align 8
  %31 = load i32, ptr %30, align 4, !tbaa !9
  call void @__kmpc_for_static_init_8(ptr @1, i32 %31, i32 34, ptr %17, ptr %14, ptr %15, ptr %16, i64 1, i64 1)
  %32 = load i64, ptr %15, align 8, !tbaa !21
  %33 = load i64, ptr %12, align 8, !tbaa !21
  %34 = icmp sgt i64 %32, %33
  br i1 %34, label %35, label %37

35:                                               ; preds = %28
  %36 = load i64, ptr %12, align 8, !tbaa !21
  br label %39

37:                                               ; preds = %28
  %38 = load i64, ptr %15, align 8, !tbaa !21
  br label %39

39:                                               ; preds = %37, %35
  %40 = phi i64 [ %36, %35 ], [ %38, %37 ]
  store i64 %40, ptr %15, align 8, !tbaa !21
  %41 = load i64, ptr %14, align 8, !tbaa !21
  store i64 %41, ptr %10, align 8, !tbaa !21
  br label %42

42:                                               ; preds = %56, %39
  %43 = load i64, ptr %10, align 8, !tbaa !21
  %44 = load i64, ptr %15, align 8, !tbaa !21
  %45 = icmp sle i64 %43, %44
  br i1 %45, label %47, label %46

46:                                               ; preds = %42
  br label %59

47:                                               ; preds = %42
  %48 = load i64, ptr %10, align 8, !tbaa !21
  %49 = mul nsw i64 %48, 1
  %50 = add nsw i64 0, %49
  store i64 %50, ptr %18, align 8, !tbaa !21
  %51 = load ptr, ptr %9, align 8, !tbaa !32
  %52 = load i64, ptr %18, align 8, !tbaa !21
  %53 = trunc i64 %52 to i32
  invoke void @"_ZZN6open3d1t8geometry6kernel10voxel_grid41GetVoxelCoordinatesAndFlattenedIndicesCPUERKNS_4core6TensorES7_RS5_S8_ifENK3$_0clEi"(ptr noundef nonnull align 8 dereferenceable(80) %51, i32 noundef %53)
          to label %54 unwind label %64

54:                                               ; preds = %47
  br label %55

55:                                               ; preds = %54
  br label %56

56:                                               ; preds = %55
  %57 = load i64, ptr %10, align 8, !tbaa !21
  %58 = add nsw i64 %57, 1
  store i64 %58, ptr %10, align 8, !tbaa !21
  br label %42

59:                                               ; preds = %46
  br label %60

60:                                               ; preds = %59
  %61 = load ptr, ptr %5, align 8
  %62 = load i32, ptr %61, align 4, !tbaa !9
  call void @__kmpc_for_static_fini(ptr @1, i32 %62)
  call void @llvm.lifetime.end.p0(i64 8, ptr %18) #25
  call void @llvm.lifetime.end.p0(i64 4, ptr %17) #25
  call void @llvm.lifetime.end.p0(i64 8, ptr %16) #25
  call void @llvm.lifetime.end.p0(i64 8, ptr %15) #25
  call void @llvm.lifetime.end.p0(i64 8, ptr %14) #25
  br label %63

63:                                               ; preds = %60, %4
  call void @llvm.lifetime.end.p0(i64 8, ptr %12) #25
  call void @llvm.lifetime.end.p0(i64 8, ptr %11) #25
  call void @llvm.lifetime.end.p0(i64 8, ptr %10) #25
  ret void

64:                                               ; preds = %47
  %65 = landingpad { ptr, i32 }
          catch ptr null
  %66 = extractvalue { ptr, i32 } %65, 0
  call void @__clang_call_terminate(ptr %66) #32
  unreachable
}