; Function Attrs: alwaysinline norecurse nounwind ssp uwtable
define internal void @"_ZN6open3d4core15ParallelForCPU_IZNS_1t8geometry6kernel10voxel_grid41GetVoxelCoordinatesAndFlattenedIndicesCPUERKNS0_6TensorES8_RS6_S9_ifE3$_0EEvRKNS0_6DeviceElRKT_.omp_outlined"(ptr noalias noundef readonly captures(none) %0, ptr noalias readnone captures(none) %1, ptr noundef nonnull readonly align 8 captures(none) dereferenceable(8) %2, ptr noundef nonnull readonly align 8 captures(none) dereferenceable(80) %3) #24 personality ptr @__gxx_personality_v0 {
  %5 = alloca i64, align 8
  %6 = alloca i64, align 8
  %7 = alloca i64, align 8
  %8 = alloca i32, align 4
  %9 = load i64, ptr %2, align 8, !tbaa !12
  %10 = icmp sgt i64 %9, 0
  br i1 %10, label %11, label %76

11:                                               ; preds = %4
  %12 = add nsw i64 %9, -1
  call void @llvm.lifetime.start.p0(i64 8, ptr nonnull %5) #25
  store i64 0, ptr %5, align 8, !tbaa !12
  call void @llvm.lifetime.start.p0(i64 8, ptr nonnull %6) #25
  store i64 %12, ptr %6, align 8, !tbaa !12
  call void @llvm.lifetime.start.p0(i64 8, ptr nonnull %7) #25
  store i64 1, ptr %7, align 8, !tbaa !12
  call void @llvm.lifetime.start.p0(i64 4, ptr nonnull %8) #25
  store i32 0, ptr %8, align 4, !tbaa !19
  %13 = load i32, ptr %0, align 4, !tbaa !19
  call void @__kmpc_for_static_init_8(ptr nonnull @1, i32 %13, i32 34, ptr nonnull %8, ptr nonnull %5, ptr nonnull %6, ptr nonnull %7, i64 1, i64 1)
  %14 = load i64, ptr %6, align 8, !tbaa !12
  %15 = call i64 @llvm.smin.i64(i64 %14, i64 %12)
  store i64 %15, ptr %6, align 8, !tbaa !12
  %16 = load i64, ptr %5, align 8, !tbaa !12
  %.not14 = icmp sgt i64 %16, %15
  br i1 %.not14, label %._crit_edge, label %.lr.ph

.lr.ph:                                           ; preds = %11
  %17 = load ptr, ptr %3, align 8, !tbaa !26
  %18 = getelementptr inbounds nuw i8, ptr %3, i64 8
  %19 = load i32, ptr %18, align 8, !tbaa !31
  %20 = getelementptr inbounds nuw i8, ptr %3, i64 16
  %21 = load ptr, ptr %20, align 8, !tbaa !32
  %22 = getelementptr inbounds nuw i8, ptr %3, i64 48
  %23 = load i32, ptr %22, align 8, !tbaa !19
  %24 = getelementptr inbounds nuw i8, ptr %3, i64 44
  %25 = load i32, ptr %24, align 4, !tbaa !19
  %26 = getelementptr inbounds nuw i8, ptr %3, i64 56
  %27 = load i32, ptr %26, align 8, !tbaa !36
  %28 = getelementptr inbounds nuw i8, ptr %3, i64 60
  %29 = getelementptr inbounds nuw i8, ptr %3, i64 64
  %30 = load ptr, ptr %29, align 8, !tbaa !38
  %31 = getelementptr inbounds nuw i8, ptr %3, i64 72
  %32 = load ptr, ptr %31, align 8, !tbaa !39
  br label %33

33:                                               ; preds = %.lr.ph, %33
  %.015 = phi i64 [ %16, %.lr.ph ], [ %74, %33 ]
  %34 = trunc i64 %.015 to i32
  %35 = sdiv i32 %34, %19
  %36 = sext i32 %35 to i64
  %37 = getelementptr inbounds i32, ptr %17, i64 %36
  %38 = load i32, ptr %37, align 4, !tbaa !19
  %39 = srem i32 %34, %19
  %40 = mul nsw i32 %38, 3
  %41 = sext i32 %40 to i64
  %42 = getelementptr inbounds i32, ptr %21, i64 %41
  %43 = load i32, ptr %42, align 4, !tbaa !19
  %44 = getelementptr i8, ptr %42, i64 4
  %45 = load i32, ptr %44, align 4, !tbaa !19
  %46 = getelementptr i8, ptr %42, i64 8
  %47 = load i32, ptr %46, align 4, !tbaa !19
  %48 = srem i32 %39, %23
  %49 = sdiv i32 %39, %23
  %50 = srem i32 %49, %25
  %51 = sdiv i32 %49, %25
  %52 = mul nsw i32 %27, %43
  %53 = add nsw i32 %52, %48
  %54 = sitofp i32 %53 to float
  %55 = load float, ptr %28, align 4, !tbaa !37
  %56 = fmul float %55, %54
  %57 = mul nsw i32 %27, %45
  %58 = add nsw i32 %57, %50
  %59 = sitofp i32 %58 to float
  %60 = fmul float %55, %59
  %61 = mul nsw i32 %27, %47
  %62 = add nsw i32 %61, %51
  %63 = sitofp i32 %62 to float
  %64 = fmul float %55, %63
  %65 = mul nsw i32 %38, %19
  %66 = add nsw i32 %65, %39
  %67 = sext i32 %66 to i64
  %sext = shl i64 %.015, 32
  %68 = ashr exact i64 %sext, 29
  %69 = getelementptr inbounds i8, ptr %30, i64 %68
  store i64 %67, ptr %69, align 8, !tbaa !12
  %sext13 = mul i64 %.015, 12884901888
  %70 = ashr exact i64 %sext13, 30
  %71 = getelementptr inbounds i8, ptr %32, i64 %70
  store float %56, ptr %71, align 4, !tbaa !653
  %72 = getelementptr i8, ptr %71, i64 4
  store float %60, ptr %72, align 4, !tbaa !653
  %73 = getelementptr i8, ptr %71, i64 8
  store float %64, ptr %73, align 4, !tbaa !653
  %74 = add nsw i64 %.015, 1
  %75 = load i64, ptr %6, align 8, !tbaa !12
  %.not.not = icmp slt i64 %.015, %75
  br i1 %.not.not, label %33, label %._crit_edge

._crit_edge:                                      ; preds = %33, %11
  call void @__kmpc_for_static_fini(ptr nonnull @1, i32 %13)
  call void @llvm.lifetime.end.p0(i64 4, ptr nonnull %8) #25
  call void @llvm.lifetime.end.p0(i64 8, ptr nonnull %7) #25
  call void @llvm.lifetime.end.p0(i64 8, ptr nonnull %6) #25
  call void @llvm.lifetime.end.p0(i64 8, ptr nonnull %5) #25
  br label %76

76:                                               ; preds = %._crit_edge, %4
  ret void
}